; Function Attrs: mustprogress nofree nounwind uwtable
define void @_ZN11TransTableL6MakeTTEv(ptr nocapture noundef nonnull align 8 dereferenceable(664216) %0) unnamed_addr #12 align 2 {
  %2 = getelementptr inbounds nuw i8, ptr %0, i64 664212
  %3 = load i32, ptr %2, align 4
  %.not = icmp eq i32 %3, 0
  br i1 %.not, label %4, label %.loopexit

4:                                                ; preds = %1
  store i32 1, ptr %2, align 4
  %5 = getelementptr inbounds nuw i8, ptr %0, i64 655416
  br label %.preheader

.preheader:                                       ; preds = %4, %12
  %indvars.iv12 = phi i64 [ 0, %4 ], [ %indvars.iv.next13, %12 ]
  br label %7

6:                                                ; preds = %7
  %indvars.iv.next = add nuw nsw i64 %indvars.iv, 1
  %exitcond.not = icmp eq i64 %indvars.iv.next, 4
  br i1 %exitcond.not, label %12, label %7, !llvm.loop !13

7:                                                ; preds = %.preheader, %6
  %indvars.iv = phi i64 [ 0, %.preheader ], [ %indvars.iv.next, %6 ]
  %8 = tail call noalias dereferenceable_or_null(133120) ptr @malloc(i64 noundef 133120) #35
  %9 = getelementptr inbounds [12 x [4 x ptr]], ptr %5, i64 0, i64 %indvars.iv12, i64 %indvars.iv
  store ptr %8, ptr %9, align 8
  %10 = icmp eq ptr %8, null
  br i1 %10, label %11, label %6

11:                                               ; preds = %7
  tail call void @exit(i32 noundef 1) #36
  unreachable

12:                                               ; preds = %6
  %indvars.iv.next13 = add nuw nsw i64 %indvars.iv12, 1
  %exitcond15.not = icmp eq i64 %indvars.iv.next13, 12
  br i1 %exitcond15.not, label %.loopexit, label %.preheader, !llvm.loop !14

.loopexit:                                        ; preds = %12, %1
  %13 = getelementptr inbounds nuw i8, ptr %0, i64 655416
  %14 = getelementptr inbounds nuw i8, ptr %0, i64 655800
  br label %.preheader16.i

.preheader16.i:                                   ; preds = %23, %.loopexit
  %indvars.iv25.i = phi i64 [ 0, %.loopexit ], [ %indvars.iv.next26.i, %23 ]
  br label %.preheader.i

.preheader.i:                                     ; preds = %21, %.preheader16.i
  %indvars.iv21.i = phi i64 [ 0, %.preheader16.i ], [ %indvars.iv.next22.i, %21 ]
  %15 = getelementptr inbounds [12 x [4 x ptr]], ptr %13, i64 0, i64 %indvars.iv25.i, i64 %indvars.iv21.i
  br label %16

16:                                               ; preds = %16, %.preheader.i
  %indvars.iv.i = phi i64 [ 0, %.preheader.i ], [ %indvars.iv.next.i, %16 ]
  %17 = load ptr, ptr %15, align 8
  %18 = getelementptr inbounds %"struct.TransTableL::distHashType", ptr %17, i64 %indvars.iv.i
  store i32 0, ptr %18, align 8
  %19 = load ptr, ptr %15, align 8
  %20 = getelementptr inbounds %"struct.TransTableL::distHashType", ptr %19, i64 %indvars.iv.i, i32 1
  store i32 0, ptr %20, align 4
  %indvars.iv.next.i = add nuw nsw i64 %indvars.iv.i, 1
  %exitcond.not.i = icmp eq i64 %indvars.iv.next.i, 256
  br i1 %exitcond.not.i, label %21, label %16, !llvm.loop !15

21:                                               ; preds = %16
  %22 = getelementptr inbounds [12 x [4 x ptr]], ptr %14, i64 0, i64 %indvars.iv25.i, i64 %indvars.iv21.i
  store ptr null, ptr %22, align 8
  %indvars.iv.next22.i = add nuw nsw i64 %indvars.iv21.i, 1
  %exitcond24.not.i = icmp eq i64 %indvars.iv.next22.i, 4
  br i1 %exitcond24.not.i, label %23, label %.preheader.i, !llvm.loop !16

23:                                               ; preds = %21
  %indvars.iv.next26.i = add nuw nsw i64 %indvars.iv25.i, 1
  %exitcond28.not.i = icmp eq i64 %indvars.iv.next26.i, 12
  br i1 %exitcond28.not.i, label %_ZN11TransTableL6InitTTEv.exit, label %.preheader16.i, !llvm.loop !17

_ZN11TransTableL6InitTTEv.exit:                   ; preds = %23
  ret void
}